; ModuleID = '24/938.c'
source_filename = "24/938.c"
target datalayout = "e-m:e-p270:32:32-p271:32:32-p272:64:64-i64:64-f80:128-n8:16:32:64-S128"
target triple = "x86_64-pc-linux-gnu"

@.str = private unnamed_addr constant [3 x i8] c"%c\00", align 1
@.str.1 = private unnamed_addr constant [2 x i8] c"\0A\00", align 1

; Function Attrs: noinline nounwind uwtable
define dso_local i32 @main() #0 {
  %1 = alloca i32, align 4
  %2 = alloca [500 x i8], align 16
  %3 = alloca i32, align 4
  %4 = alloca i32, align 4
  %5 = alloca i32, align 4
  %6 = alloca i32, align 4
  %7 = alloca i32, align 4
  %8 = alloca i32, align 4
  %9 = alloca i32, align 4
  %10 = alloca i32, align 4
  %11 = alloca i32, align 4
  %12 = alloca i32, align 4
  store i32 0, i32* %1, align 4
  store i32 0, i32* %5, align 4
  store i32 20, i32* %6, align 4
  store i32 -1, i32* %8, align 4
  %13 = getelementptr inbounds [500 x i8], [500 x i8]* %2, i64 0, i64 0
  %14 = call i32 (i8*, ...) bitcast (i32 (...)* @gets to i32 (i8*, ...)*)(i8* %13)
  store i32 0, i32* %3, align 4
  br label %15

15:                                               ; preds = %51, %0
  %16 = load i32, i32* %3, align 4
  %17 = sext i32 %16 to i64
  %18 = getelementptr inbounds [500 x i8], [500 x i8]* %2, i64 0, i64 %17
  %19 = load i8, i8* %18, align 1
  %20 = sext i8 %19 to i32
  %21 = icmp ne i32 %20, 0
  br i1 %21, label %22, label %54

22:                                               ; preds = %15
  %23 = load i32, i32* %3, align 4
  %24 = sext i32 %23 to i64
  %25 = getelementptr inbounds [500 x i8], [500 x i8]* %2, i64 0, i64 %24
  %26 = load i8, i8* %25, align 1
  %27 = sext i8 %26 to i32
  %28 = icmp eq i32 %27, 32
  br i1 %28, label %29, label %50

29:                                               ; preds = %22
  %30 = load i32, i32* %3, align 4
  %31 = load i32, i32* %8, align 4
  %32 = sub nsw i32 %30, %31
  store i32 %32, i32* %7, align 4
  %33 = load i32, i32* %7, align 4
  %34 = load i32, i32* %5, align 4
  %35 = icmp sgt i32 %33, %34
  br i1 %35, label %36, label %40

36:                                               ; preds = %29
  %37 = load i32, i32* %7, align 4
  store i32 %37, i32* %5, align 4
  %38 = load i32, i32* %3, align 4
  store i32 %38, i32* %9, align 4
  %39 = load i32, i32* %8, align 4
  store i32 %39, i32* %10, align 4
  br label %40

40:                                               ; preds = %36, %29
  %41 = load i32, i32* %7, align 4
  %42 = load i32, i32* %6, align 4
  %43 = icmp slt i32 %41, %42
  br i1 %43, label %44, label %48

44:                                               ; preds = %40
  %45 = load i32, i32* %7, align 4
  store i32 %45, i32* %6, align 4
  %46 = load i32, i32* %3, align 4
  store i32 %46, i32* %11, align 4
  %47 = load i32, i32* %8, align 4
  store i32 %47, i32* %12, align 4
  br label %48

48:                                               ; preds = %44, %40
  %49 = load i32, i32* %3, align 4
  store i32 %49, i32* %8, align 4
  br label %50

50:                                               ; preds = %48, %22
  br label %51

51:                                               ; preds = %50
  %52 = load i32, i32* %3, align 4
  %53 = add nsw i32 %52, 1
  store i32 %53, i32* %3, align 4
  br label %15

54:                                               ; preds = %15
  %55 = load i32, i32* %3, align 4
  %56 = sext i32 %55 to i64
  %57 = getelementptr inbounds [500 x i8], [500 x i8]* %2, i64 0, i64 %56
  %58 = load i8, i8* %57, align 1
  %59 = sext i8 %58 to i32
  %60 = icmp eq i32 %59, 0
  br i1 %60, label %61, label %81

61:                                               ; preds = %54
  %62 = load i32, i32* %3, align 4
  %63 = load i32, i32* %8, align 4
  %64 = sub nsw i32 %62, %63
  store i32 %64, i32* %7, align 4
  %65 = load i32, i32* %7, align 4
  %66 = load i32, i32* %5, align 4
  %67 = icmp sgt i32 %65, %66
  br i1 %67, label %68, label %72

68:                                               ; preds = %61
  %69 = load i32, i32* %7, align 4
  store i32 %69, i32* %5, align 4
  %70 = load i32, i32* %3, align 4
  store i32 %70, i32* %9, align 4
  %71 = load i32, i32* %8, align 4
  store i32 %71, i32* %10, align 4
  br label %72

72:                                               ; preds = %68, %61
  %73 = load i32, i32* %7, align 4
  %74 = load i32, i32* %6, align 4
  %75 = icmp slt i32 %73, %74
  br i1 %75, label %76, label %80

76:                                               ; preds = %72
  %77 = load i32, i32* %7, align 4
  store i32 %77, i32* %6, align 4
  %78 = load i32, i32* %3, align 4
  store i32 %78, i32* %11, align 4
  %79 = load i32, i32* %8, align 4
  store i32 %79, i32* %12, align 4
  br label %80

80:                                               ; preds = %76, %72
  br label %81

81:                                               ; preds = %80, %54
  %82 = load i32, i32* %10, align 4
  %83 = add nsw i32 %82, 1
  store i32 %83, i32* %4, align 4
  br label %84

84:                                               ; preds = %95, %81
  %85 = load i32, i32* %4, align 4
  %86 = load i32, i32* %9, align 4
  %87 = icmp slt i32 %85, %86
  br i1 %87, label %88, label %98

88:                                               ; preds = %84
  %89 = load i32, i32* %4, align 4
  %90 = sext i32 %89 to i64
  %91 = getelementptr inbounds [500 x i8], [500 x i8]* %2, i64 0, i64 %90
  %92 = load i8, i8* %91, align 1
  %93 = sext i8 %92 to i32
  %94 = call i32 (i8*, ...) @printf(i8* getelementptr inbounds ([3 x i8], [3 x i8]* @.str, i64 0, i64 0), i32 %93)
  br label %95

95:                                               ; preds = %88
  %96 = load i32, i32* %4, align 4
  %97 = add nsw i32 %96, 1
  store i32 %97, i32* %4, align 4
  br label %84

98:                                               ; preds = %84
  %99 = call i32 (i8*, ...) @printf(i8* getelementptr inbounds ([2 x i8], [2 x i8]* @.str.1, i64 0, i64 0))
  %100 = load i32, i32* %12, align 4
  %101 = add nsw i32 %100, 1
  store i32 %101, i32* %4, align 4
  br label %102

102:                                              ; preds = %113, %98
  %103 = load i32, i32* %4, align 4
  %104 = load i32, i32* %11, align 4
  %105 = icmp slt i32 %103, %104
  br i1 %105, label %106, label %116

106:                                              ; preds = %102
  %107 = load i32, i32* %4, align 4
  %108 = sext i32 %107 to i64
  %109 = getelementptr inbounds [500 x i8], [500 x i8]* %2, i64 0, i64 %108
  %110 = load i8, i8* %109, align 1
  %111 = sext i8 %110 to i32
  %112 = call i32 (i8*, ...) @printf(i8* getelementptr inbounds ([3 x i8], [3 x i8]* @.str, i64 0, i64 0), i32 %111)
  br label %113

113:                                              ; preds = %106
  %114 = load i32, i32* %4, align 4
  %115 = add nsw i32 %114, 1
  store i32 %115, i32* %4, align 4
  br label %102

116:                                              ; preds = %102
  ret i32 0
}

declare dso_local i32 @gets(...) #1

declare dso_local i32 @printf(i8*, ...) #1


!llvm.module.flags = !{!0}
!llvm.ident = !{!1}

!0 = !{i32 1, !"wchar_size", i32 4}
!1 = !{!"clang version 10.0.0-4ubuntu1 "}
